; Function Attrs: mustprogress uwtable
define dso_local void @_ZN4pbrt11ErrorStringB5cxx11Ei(ptr dead_on_unwind noalias writable sret(%"class.std::__cxx11::basic_string") align 8 %0, i32 noundef %1) local_unnamed_addr #1 personality ptr @__gxx_personality_v0 {
  %3 = alloca i32, align 4
  %4 = alloca ptr, align 8
  store i32 %1, ptr %3, align 4, !tbaa !33
  call void @llvm.lifetime.start.p0(i64 8, ptr nonnull %4) #23
  %5 = tail call ptr @strerror(i32 noundef %1) #23
  store ptr %5, ptr %4, align 8, !tbaa !35
  %6 = getelementptr inbounds nuw i8, ptr %0, i64 16
  store ptr %6, ptr %0, align 8, !tbaa !12, !alias.scope !36
  %7 = getelementptr inbounds nuw i8, ptr %0, i64 8
  store i64 0, ptr %7, align 8, !tbaa !18, !alias.scope !36
  store i8 0, ptr %6, align 8, !tbaa !17, !alias.scope !36
  invoke void @_ZN4pbrt6detail21stringPrintfRecursiveIPcJRiEEEvPNSt7__cxx1112basic_stringIcSt11char_traitsIcESaIcEEEPKcOT_DpOT0_(ptr noundef nonnull align 8 %0, ptr noundef nonnull @.str.4, ptr noundef nonnull align 8 dereferenceable(8) %4, ptr noundef nonnull align 4 dereferenceable(4) %3)
          to label %_ZN4pbrt12StringPrintfIJPcRiEEENSt7__cxx1112basic_stringIcSt11char_traitsIcESaIcEEEPKcDpOT_.exit unwind label %8

8:                                                ; preds = %2
  %9 = landingpad { ptr, i32 }
          cleanup
  %10 = load ptr, ptr %0, align 8, !tbaa !15, !alias.scope !36
  %11 = icmp eq ptr %10, %6
  br i1 %11, label %_ZNKSt7__cxx1112basic_stringIcSt11char_traitsIcESaIcEE11_M_is_localEv.exit.thread.i.i.i, label %_ZNKSt7__cxx1112basic_stringIcSt11char_traitsIcESaIcEE11_M_is_localEv.exit.i.i.i

_ZNKSt7__cxx1112basic_stringIcSt11char_traitsIcESaIcEE11_M_is_localEv.exit.thread.i.i.i: ; preds = %8
  %12 = load i64, ptr %7, align 8, !tbaa !18, !alias.scope !36
  %13 = icmp ult i64 %12, 16
  call void @llvm.assume(i1 %13)
  br label %_ZNSt7__cxx1112basic_stringIcSt11char_traitsIcESaIcEED2Ev.exit.i

_ZNKSt7__cxx1112basic_stringIcSt11char_traitsIcESaIcEE11_M_is_localEv.exit.i.i.i: ; preds = %8
  %14 = load i64, ptr %6, align 8, !tbaa !17, !alias.scope !36
  %15 = add i64 %14, 1
  call void @_ZdlPvm(ptr noundef %10, i64 noundef %15) #25
  br label %_ZNSt7__cxx1112basic_stringIcSt11char_traitsIcESaIcEED2Ev.exit.i

_ZNSt7__cxx1112basic_stringIcSt11char_traitsIcESaIcEED2Ev.exit.i: ; preds = %_ZNKSt7__cxx1112basic_stringIcSt11char_traitsIcESaIcEE11_M_is_localEv.exit.i.i.i, %_ZNKSt7__cxx1112basic_stringIcSt11char_traitsIcESaIcEE11_M_is_localEv.exit.thread.i.i.i
  resume { ptr, i32 } %9

_ZN4pbrt12StringPrintfIJPcRiEEENSt7__cxx1112basic_stringIcSt11char_traitsIcESaIcEEEPKcDpOT_.exit: ; preds = %2
  call void @llvm.lifetime.end.p0(i64 8, ptr nonnull %4) #23
  ret void
}